; Function Attrs: nofree norecurse nosync nounwind memory(argmem: readwrite) uwtable
define internal noundef i32 @pixelize_max8(ptr noundef readonly captures(none) %0, ptr noundef writeonly captures(none) %1, i64 noundef %2, i64 noundef %3, i32 noundef %4, i32 noundef %5) #4 {
  %7 = icmp sgt i32 %5, 0
  %8 = icmp sgt i32 %4, 0
  %or.cond = and i1 %7, %8
  br i1 %or.cond, label %.preheader37.us.preheader, label %._crit_edge47

.preheader37.us.preheader:                        ; preds = %6
  %9 = load i8, ptr %0, align 1, !tbaa !62
  %wide.trip.count = zext nneg i32 %4 to i64
  br label %.preheader37.us

.preheader37.us:                                  ; preds = %.preheader37.us.preheader, %._crit_edge.us
  %.02942.us = phi i32 [ %14, %._crit_edge.us ], [ 0, %.preheader37.us.preheader ]
  %.03041.us = phi i8 [ %..1.us, %._crit_edge.us ], [ %9, %.preheader37.us.preheader ]
  %.03240.us = phi ptr [ %13, %._crit_edge.us ], [ %0, %.preheader37.us.preheader ]
  br label %10

10:                                               ; preds = %.preheader37.us, %10
  %indvars.iv = phi i64 [ 0, %.preheader37.us ], [ %indvars.iv.next, %10 ]
  %.138.us = phi i8 [ %.03041.us, %.preheader37.us ], [ %..1.us, %10 ]
  %11 = getelementptr inbounds nuw i8, ptr %.03240.us, i64 %indvars.iv
  %12 = load i8, ptr %11, align 1, !tbaa !62
  %..1.us = tail call i8 @llvm.umax.i8(i8 %12, i8 %.138.us)
  %indvars.iv.next = add nuw nsw i64 %indvars.iv, 1
  %exitcond.not = icmp eq i64 %indvars.iv.next, %wide.trip.count
  br i1 %exitcond.not, label %._crit_edge.us, label %10, !llvm.loop !79

._crit_edge.us:                                   ; preds = %10
  %13 = getelementptr inbounds nuw i8, ptr %.03240.us, i64 %2
  %14 = add nuw nsw i32 %.02942.us, 1
  %exitcond51.not = icmp eq i32 %14, %5
  br i1 %exitcond51.not, label %.preheader36, label %.preheader37.us, !llvm.loop !80

.preheader36:                                     ; preds = %._crit_edge.us
  br i1 %7, label %.preheader.us.preheader, label %._crit_edge47

.preheader.us.preheader:                          ; preds = %.preheader36
  %15 = zext nneg i32 %4 to i64
  br label %.preheader.us

.preheader.us:                                    ; preds = %.preheader.us.preheader, %.preheader.us
  %.02746.us = phi i32 [ %17, %.preheader.us ], [ 0, %.preheader.us.preheader ]
  %.03145.us = phi ptr [ %16, %.preheader.us ], [ %1, %.preheader.us.preheader ]
  tail call void @llvm.memset.p0.i64(ptr align 1 %.03145.us, i8 %..1.us, i64 %15, i1 false), !tbaa !62
  %16 = getelementptr inbounds nuw i8, ptr %.03145.us, i64 %3
  %17 = add nuw nsw i32 %.02746.us, 1
  %exitcond55.not = icmp eq i32 %17, %5
  br i1 %exitcond55.not, label %._crit_edge47, label %.preheader.us, !llvm.loop !81

._crit_edge47:                                    ; preds = %.preheader.us, %6, %.preheader36
  ret i32 0
}